; Function Attrs: nofree norecurse nosync nounwind sspstrong uwtable
define internal fastcc void @rebuild_table_with(ptr noundef captures(none) %0, ptr noundef readonly captures(none) %1) unnamed_addr #20 {
  %3 = getelementptr inbounds nuw i8, ptr %0, i64 48
  %4 = load ptr, ptr %3, align 8, !tbaa !25
  %5 = getelementptr inbounds nuw i8, ptr %0, i64 24
  %6 = load ptr, ptr %5, align 8, !tbaa !23
  %.fr = freeze ptr %6
  %7 = getelementptr i8, ptr %0, i64 2
  %.val = load i8, ptr %7, align 2, !tbaa !22
  %8 = getelementptr inbounds nuw i8, ptr %1, i64 40
  %9 = load i64, ptr %8, align 8, !tbaa !30
  %10 = getelementptr inbounds nuw i8, ptr %1, i64 48
  %11 = load ptr, ptr %10, align 8, !tbaa !25
  %12 = getelementptr inbounds nuw i8, ptr %1, i64 32
  %13 = load i64, ptr %12, align 8, !tbaa !31
  %14 = icmp ult i64 %13, %9
  br i1 %14, label %.lr.ph, label %._crit_edge

.lr.ph:                                           ; preds = %2
  %.not33 = icmp eq ptr %.fr, null
  %15 = getelementptr i8, ptr %0, i64 1
  %16 = getelementptr inbounds nuw i8, ptr %0, i64 16
  br i1 %.not33, label %.lr.ph.split.us, label %.lr.ph.split, !prof !50

.lr.ph.split.us:                                  ; preds = %.lr.ph, %27
  %.038.us = phi i64 [ %28, %27 ], [ %13, %.lr.ph ]
  %.02937.us = phi i64 [ %.1.us, %27 ], [ 0, %.lr.ph ]
  %17 = getelementptr %struct.parser_st_table_entry, ptr %11, i64 %.038.us
  %18 = getelementptr i8, ptr %17, i64 24
  tail call void @llvm.prefetch.p0(ptr %18, i32 0, i32 3, i32 1)
  %19 = load i64, ptr %17, align 8, !tbaa !32
  %20 = icmp eq i64 %19, -1
  br i1 %20, label %27, label %21, !prof !50

21:                                               ; preds = %.lr.ph.split.us
  %22 = getelementptr %struct.parser_st_table_entry, ptr %4, i64 %.02937.us
  %.not.us = icmp eq ptr %22, %17
  br i1 %.not.us, label %set_bin.exit.us, label %23

23:                                               ; preds = %21
  tail call void @llvm.memcpy.p0.p0.i64(ptr noundef nonnull align 8 dereferenceable(24) %22, ptr noundef nonnull align 8 dereferenceable(24) %17, i64 24, i1 false), !tbaa.struct !71
  br label %set_bin.exit.us

set_bin.exit.us:                                  ; preds = %23, %21
  %24 = load i64, ptr %16, align 8, !tbaa !26
  %25 = add i64 %24, 1
  store i64 %25, ptr %16, align 8, !tbaa !26
  %26 = add i64 %.02937.us, 1
  br label %27

27:                                               ; preds = %set_bin.exit.us, %.lr.ph.split.us
  %.1.us = phi i64 [ %.02937.us, %.lr.ph.split.us ], [ %26, %set_bin.exit.us ]
  %28 = add nuw i64 %.038.us, 1
  %exitcond43.not = icmp eq i64 %28, %9
  br i1 %exitcond43.not, label %._crit_edge, label %.lr.ph.split.us, !llvm.loop !72

.lr.ph.split:                                     ; preds = %.lr.ph, %96
  %.038 = phi i64 [ %97, %96 ], [ %13, %.lr.ph ]
  %.02937 = phi i64 [ %.1, %96 ], [ 0, %.lr.ph ]
  %29 = getelementptr %struct.parser_st_table_entry, ptr %11, i64 %.038
  %30 = getelementptr i8, ptr %29, i64 24
  tail call void @llvm.prefetch.p0(ptr %30, i32 0, i32 3, i32 1)
  %31 = load i64, ptr %29, align 8, !tbaa !32
  %32 = icmp eq i64 %31, -1
  br i1 %32, label %96, label %33, !prof !50

33:                                               ; preds = %.lr.ph.split
  %34 = getelementptr %struct.parser_st_table_entry, ptr %4, i64 %.02937
  %.not = icmp eq ptr %34, %29
  br i1 %.not, label %36, label %35

35:                                               ; preds = %33
  tail call void @llvm.memcpy.p0.p0.i64(ptr noundef nonnull align 8 dereferenceable(24) %34, ptr noundef nonnull align 8 dereferenceable(24) %29, i64 24, i1 false), !tbaa.struct !71
  %.pre = load i64, ptr %29, align 8, !tbaa !32
  br label %36

36:                                               ; preds = %35, %33
  %37 = phi i64 [ %.pre, %35 ], [ %31, %33 ]
  %.val.i = load i8, ptr %15, align 1, !tbaa !20
  %38 = zext nneg i8 %.val.i to i64
  %notmask.i.i.i = shl nsw i64 -1, %38
  %39 = xor i64 %notmask.i.i.i, -1
  %40 = load ptr, ptr %5, align 8, !tbaa !23
  %.val9.i = load i8, ptr %7, align 2, !tbaa !22
  %.028.i = and i64 %37, %39
  switch i8 %.val9.i, label %.split.i [
    i8 0, label %.split.us.i
    i8 1, label %.split.us14.i
    i8 2, label %.split.us21.i
  ]

.split.us.i:                                      ; preds = %36
  %41 = getelementptr i8, ptr %40, i64 %.028.i
  %42 = load i8, ptr %41, align 1, !tbaa !42
  %43 = icmp ult i8 %42, 2
  br i1 %43, label %find_table_bin_ind_direct.exit, label %get_bin.exit.us.i

get_bin.exit.us.i:                                ; preds = %.split.us.i, %get_bin.exit.us.i
  %.0.us33.i = phi i64 [ %.0.us.i, %get_bin.exit.us.i ], [ %.028.i, %.split.us.i ]
  %.011.us32.i = phi i64 [ %44, %get_bin.exit.us.i ], [ %37, %.split.us.i ]
  %44 = lshr i64 %.011.us32.i, 11
  %45 = mul i64 %.0.us33.i, 5
  %46 = add i64 %45, 1
  %47 = add i64 %46, %44
  %.0.us.i = and i64 %47, %39
  %48 = getelementptr i8, ptr %40, i64 %.0.us.i
  %49 = load i8, ptr %48, align 1, !tbaa !42
  %50 = icmp ult i8 %49, 2
  br i1 %50, label %find_table_bin_ind_direct.exit, label %get_bin.exit.us.i

.split.us14.i:                                    ; preds = %36
  %51 = getelementptr i16, ptr %40, i64 %.028.i
  %52 = load i16, ptr %51, align 2, !tbaa !43
  %53 = icmp ult i16 %52, 2
  br i1 %53, label %find_table_bin_ind_direct.exit, label %get_bin.exit.us18.i

get_bin.exit.us18.i:                              ; preds = %.split.us14.i, %get_bin.exit.us18.i
  %.0.us1738.i = phi i64 [ %.0.us17.i, %get_bin.exit.us18.i ], [ %.028.i, %.split.us14.i ]
  %.011.us1537.i = phi i64 [ %54, %get_bin.exit.us18.i ], [ %37, %.split.us14.i ]
  %54 = lshr i64 %.011.us1537.i, 11
  %55 = mul i64 %.0.us1738.i, 5
  %56 = add i64 %55, 1
  %57 = add i64 %56, %54
  %.0.us17.i = and i64 %57, %39
  %58 = getelementptr i16, ptr %40, i64 %.0.us17.i
  %59 = load i16, ptr %58, align 2, !tbaa !43
  %60 = icmp ult i16 %59, 2
  br i1 %60, label %find_table_bin_ind_direct.exit, label %get_bin.exit.us18.i

.split.us21.i:                                    ; preds = %36
  %61 = getelementptr i32, ptr %40, i64 %.028.i
  %62 = load i32, ptr %61, align 4, !tbaa !45
  %63 = icmp ult i32 %62, 2
  br i1 %63, label %find_table_bin_ind_direct.exit, label %get_bin.exit.us25.i

get_bin.exit.us25.i:                              ; preds = %.split.us21.i, %get_bin.exit.us25.i
  %.0.us2443.i = phi i64 [ %.0.us24.i, %get_bin.exit.us25.i ], [ %.028.i, %.split.us21.i ]
  %.011.us2242.i = phi i64 [ %64, %get_bin.exit.us25.i ], [ %37, %.split.us21.i ]
  %64 = lshr i64 %.011.us2242.i, 11
  %65 = mul i64 %.0.us2443.i, 5
  %66 = add i64 %65, 1
  %67 = add i64 %66, %64
  %.0.us24.i = and i64 %67, %39
  %68 = getelementptr i32, ptr %40, i64 %.0.us24.i
  %69 = load i32, ptr %68, align 4, !tbaa !45
  %70 = icmp ult i32 %69, 2
  br i1 %70, label %find_table_bin_ind_direct.exit, label %get_bin.exit.us25.i

.split.i:                                         ; preds = %36
  %71 = getelementptr i64, ptr %40, i64 %.028.i
  %72 = load i64, ptr %71, align 8, !tbaa !46
  %73 = icmp ult i64 %72, 2
  br i1 %73, label %find_table_bin_ind_direct.exit, label %get_bin.exit.i

get_bin.exit.i:                                   ; preds = %.split.i, %get_bin.exit.i
  %.030.i = phi i64 [ %.0.i, %get_bin.exit.i ], [ %.028.i, %.split.i ]
  %.01129.i = phi i64 [ %74, %get_bin.exit.i ], [ %37, %.split.i ]
  %74 = lshr i64 %.01129.i, 11
  %75 = mul i64 %.030.i, 5
  %76 = add i64 %75, 1
  %77 = add i64 %76, %74
  %.0.i = and i64 %77, %39
  %78 = getelementptr i64, ptr %40, i64 %.0.i
  %79 = load i64, ptr %78, align 8, !tbaa !46
  %80 = icmp ult i64 %79, 2
  br i1 %80, label %find_table_bin_ind_direct.exit, label %get_bin.exit.i

find_table_bin_ind_direct.exit:                   ; preds = %get_bin.exit.us25.i, %get_bin.exit.us18.i, %get_bin.exit.us.i, %get_bin.exit.i, %.split.us.i, %.split.us14.i, %.split.us21.i, %.split.i
  %.us-phi.i = phi i64 [ %.028.i, %.split.us.i ], [ %.028.i, %.split.us14.i ], [ %.028.i, %.split.us21.i ], [ %.028.i, %.split.i ], [ %.0.i, %get_bin.exit.i ], [ %.0.us.i, %get_bin.exit.us.i ], [ %.0.us17.i, %get_bin.exit.us18.i ], [ %.0.us24.i, %get_bin.exit.us25.i ]
  %81 = add i64 %.02937, 2
  switch i8 %.val, label %91 [
    i8 0, label %82
    i8 1, label %85
    i8 2, label %88
  ]

82:                                               ; preds = %find_table_bin_ind_direct.exit
  %83 = trunc i64 %81 to i8
  %84 = getelementptr i8, ptr %.fr, i64 %.us-phi.i
  store i8 %83, ptr %84, align 1, !tbaa !42
  br label %set_bin.exit

85:                                               ; preds = %find_table_bin_ind_direct.exit
  %86 = trunc i64 %81 to i16
  %87 = getelementptr i16, ptr %.fr, i64 %.us-phi.i
  store i16 %86, ptr %87, align 2, !tbaa !43
  br label %set_bin.exit

88:                                               ; preds = %find_table_bin_ind_direct.exit
  %89 = trunc i64 %81 to i32
  %90 = getelementptr i32, ptr %.fr, i64 %.us-phi.i
  store i32 %89, ptr %90, align 4, !tbaa !45
  br label %set_bin.exit

91:                                               ; preds = %find_table_bin_ind_direct.exit
  %92 = getelementptr i64, ptr %.fr, i64 %.us-phi.i
  store i64 %81, ptr %92, align 8, !tbaa !46
  br label %set_bin.exit

set_bin.exit:                                     ; preds = %91, %88, %85, %82
  %93 = load i64, ptr %16, align 8, !tbaa !26
  %94 = add i64 %93, 1
  store i64 %94, ptr %16, align 8, !tbaa !26
  %95 = add i64 %.02937, 1
  br label %96

96:                                               ; preds = %.lr.ph.split, %set_bin.exit
  %.1 = phi i64 [ %.02937, %.lr.ph.split ], [ %95, %set_bin.exit ]
  %97 = add nuw i64 %.038, 1
  %exitcond.not = icmp eq i64 %97, %9
  br i1 %exitcond.not, label %._crit_edge, label %.lr.ph.split, !llvm.loop !72

._crit_edge:                                      ; preds = %96, %27, %2
  ret void
}